target datalayout = "e-m:e-p270:32:32-p271:32:32-p272:64:64-i64:64-i128:128-f80:128-n8:16:32:64-S128"
target triple = "x86_64-pc-linux-gnu"

%struct.gz_state = type { %struct.gzFile_s, i32, i32, ptr, i32, i32, ptr, ptr, i32, i32, i64, i32, i32, i32, i32, i64, i32, i32, ptr, %struct.z_stream_s }
%struct.gzFile_s = type { i32, ptr, i64 }
%struct.z_stream_s = type { ptr, i32, i64, ptr, i32, i64, ptr, ptr, ptr, ptr, ptr, i32, i64, i64, i32 }

; Function Attrs: nounwind uwtable
define internal i32 @gz_load(ptr noundef %0, ptr noundef %1, i32 noundef %2, ptr noundef %3) #0 {
  %5 = alloca i32, align 4
  %6 = alloca ptr, align 8
  %7 = alloca ptr, align 8
  %8 = alloca i32, align 4
  %9 = alloca ptr, align 8
  %10 = alloca i32, align 4
  %11 = alloca i32, align 4
  store ptr %0, ptr %6, align 8, !tbaa !8
  store ptr %1, ptr %7, align 8, !tbaa !40
  store i32 %2, ptr %8, align 4, !tbaa !9
  store ptr %3, ptr %9, align 8, !tbaa !41
  call void @llvm.lifetime.start.p0(i64 4, ptr %10) #8
  %12 = load ptr, ptr %9, align 8, !tbaa !41
  store i32 0, ptr %12, align 4, !tbaa !9
  br label %13

13:                                               ; preds = %37, %4
  %14 = load ptr, ptr %6, align 8, !tbaa !8
  %15 = getelementptr inbounds nuw %struct.gz_state, ptr %14, i32 0, i32 2
  %16 = load i32, ptr %15, align 4, !tbaa !43
  %17 = load ptr, ptr %7, align 8, !tbaa !40
  %18 = load ptr, ptr %9, align 8, !tbaa !41
  %19 = load i32, ptr %18, align 4, !tbaa !9
  %20 = zext i32 %19 to i64
  %21 = getelementptr inbounds nuw i8, ptr %17, i64 %20
  %22 = load i32, ptr %8, align 4, !tbaa !9
  %23 = load ptr, ptr %9, align 8, !tbaa !41
  %24 = load i32, ptr %23, align 4, !tbaa !9
  %25 = sub i32 %22, %24
  %26 = zext i32 %25 to i64
  %27 = call i64 @read(i32 noundef %16, ptr noundef %21, i64 noundef %26)
  %28 = trunc i64 %27 to i32
  store i32 %28, ptr %10, align 4, !tbaa !9
  %29 = load i32, ptr %10, align 4, !tbaa !9
  %30 = icmp sle i32 %29, 0
  br i1 %30, label %31, label %32

31:                                               ; preds = %13
  br label %42

32:                                               ; preds = %13
  %33 = load i32, ptr %10, align 4, !tbaa !9
  %34 = load ptr, ptr %9, align 8, !tbaa !41
  %35 = load i32, ptr %34, align 4, !tbaa !9
  %36 = add i32 %35, %33
  store i32 %36, ptr %34, align 4, !tbaa !9
  br label %37

37:                                               ; preds = %32
  %38 = load ptr, ptr %9, align 8, !tbaa !41
  %39 = load i32, ptr %38, align 4, !tbaa !9
  %40 = load i32, ptr %8, align 4, !tbaa !9
  %41 = icmp ult i32 %39, %40
  br i1 %41, label %13, label %42, !llvm.loop !44

42:                                               ; preds = %37, %31
  %43 = load i32, ptr %10, align 4, !tbaa !9
  %44 = icmp slt i32 %43, 0
  br i1 %44, label %45, label %50

45:                                               ; preds = %42
  %46 = load ptr, ptr %6, align 8, !tbaa !8
  %47 = call ptr @__errno_location() #9
  %48 = load i32, ptr %47, align 4, !tbaa !9
  %49 = call ptr @strerror(i32 noundef %48) #8
  call void @MOZ_Z_gz_error(ptr noundef %46, i32 noundef -1, ptr noundef %49)
  store i32 -1, ptr %5, align 4
  store i32 1, ptr %11, align 4
  br label %57

50:                                               ; preds = %42
  %51 = load i32, ptr %10, align 4, !tbaa !9
  %52 = icmp eq i32 %51, 0
  br i1 %52, label %53, label %56

53:                                               ; preds = %50
  %54 = load ptr, ptr %6, align 8, !tbaa !8
  %55 = getelementptr inbounds nuw %struct.gz_state, ptr %54, i32 0, i32 11
  store i32 1, ptr %55, align 8, !tbaa !25
  br label %56

56:                                               ; preds = %53, %50
  store i32 0, ptr %5, align 4
  store i32 1, ptr %11, align 4
  br label %57

57:                                               ; preds = %56, %45
  call void @llvm.lifetime.end.p0(i64 4, ptr %10) #8
  %58 = load i32, ptr %5, align 4
  ret i32 %58
}

; Function Attrs: nounwind uwtable
define internal i32 @gz_avail(ptr noundef %0) #0 {
  %2 = alloca i32, align 4
  %3 = alloca ptr, align 8
  %4 = alloca i32, align 4
  %5 = alloca ptr, align 8
  %6 = alloca i32, align 4
  %7 = alloca ptr, align 8
  %8 = alloca ptr, align 8
  %9 = alloca i32, align 4
  store ptr %0, ptr %3, align 8, !tbaa !8
  call void @llvm.lifetime.start.p0(i64 4, ptr %4) #8
  call void @llvm.lifetime.start.p0(i64 8, ptr %5) #8
  %10 = load ptr, ptr %3, align 8, !tbaa !8
  %11 = getelementptr inbounds nuw %struct.gz_state, ptr %10, i32 0, i32 19
  store ptr %11, ptr %5, align 8, !tbaa !11
  %12 = load ptr, ptr %3, align 8, !tbaa !8
  %13 = getelementptr inbounds nuw %struct.gz_state, ptr %12, i32 0, i32 17
  %14 = load i32, ptr %13, align 4, !tbaa !20
  %15 = icmp ne i32 %14, 0
  br i1 %15, label %16, label %22

16:                                               ; preds = %1
  %17 = load ptr, ptr %3, align 8, !tbaa !8
  %18 = getelementptr inbounds nuw %struct.gz_state, ptr %17, i32 0, i32 17
  %19 = load i32, ptr %18, align 4, !tbaa !20
  %20 = icmp ne i32 %19, -5
  br i1 %20, label %21, label %22

21:                                               ; preds = %16
  store i32 -1, ptr %2, align 4
  store i32 1, ptr %6, align 4
  br label %85

22:                                               ; preds = %16, %1
  %23 = load ptr, ptr %3, align 8, !tbaa !8
  %24 = getelementptr inbounds nuw %struct.gz_state, ptr %23, i32 0, i32 11
  %25 = load i32, ptr %24, align 8, !tbaa !25
  %26 = icmp eq i32 %25, 0
  br i1 %26, label %27, label %84

27:                                               ; preds = %22
  %28 = load ptr, ptr %5, align 8, !tbaa !11
  %29 = getelementptr inbounds nuw %struct.z_stream_s, ptr %28, i32 0, i32 1
  %30 = load i32, ptr %29, align 8, !tbaa !26
  %31 = icmp ne i32 %30, 0
  br i1 %31, label %32, label %53

32:                                               ; preds = %27
  call void @llvm.lifetime.start.p0(i64 8, ptr %7) #8
  %33 = load ptr, ptr %3, align 8, !tbaa !8
  %34 = getelementptr inbounds nuw %struct.gz_state, ptr %33, i32 0, i32 6
  %35 = load ptr, ptr %34, align 8, !tbaa !52
  store ptr %35, ptr %7, align 8, !tbaa !40
  call void @llvm.lifetime.start.p0(i64 8, ptr %8) #8
  %36 = load ptr, ptr %5, align 8, !tbaa !11
  %37 = getelementptr inbounds nuw %struct.z_stream_s, ptr %36, i32 0, i32 0
  %38 = load ptr, ptr %37, align 8, !tbaa !57
  store ptr %38, ptr %8, align 8, !tbaa !40
  call void @llvm.lifetime.start.p0(i64 4, ptr %9) #8
  %39 = load ptr, ptr %5, align 8, !tbaa !11
  %40 = getelementptr inbounds nuw %struct.z_stream_s, ptr %39, i32 0, i32 1
  %41 = load i32, ptr %40, align 8, !tbaa !26
  store i32 %41, ptr %9, align 4, !tbaa !9
  br label %42

42:                                               ; preds = %48, %32
  %43 = load ptr, ptr %8, align 8, !tbaa !40
  %44 = getelementptr inbounds nuw i8, ptr %43, i32 1
  store ptr %44, ptr %8, align 8, !tbaa !40
  %45 = load i8, ptr %43, align 1, !tbaa !47
  %46 = load ptr, ptr %7, align 8, !tbaa !40
  %47 = getelementptr inbounds nuw i8, ptr %46, i32 1
  store ptr %47, ptr %7, align 8, !tbaa !40
  store i8 %45, ptr %46, align 1, !tbaa !47
  br label %48

48:                                               ; preds = %42
  %49 = load i32, ptr %9, align 4, !tbaa !9
  %50 = add i32 %49, -1
  store i32 %50, ptr %9, align 4, !tbaa !9
  %51 = icmp ne i32 %50, 0
  br i1 %51, label %42, label %52, !llvm.loop !59

52:                                               ; preds = %48
  call void @llvm.lifetime.end.p0(i64 4, ptr %9) #8
  call void @llvm.lifetime.end.p0(i64 8, ptr %8) #8
  call void @llvm.lifetime.end.p0(i64 8, ptr %7) #8
  br label %53

53:                                               ; preds = %52, %27
  %54 = load ptr, ptr %3, align 8, !tbaa !8
  %55 = load ptr, ptr %3, align 8, !tbaa !8
  %56 = getelementptr inbounds nuw %struct.gz_state, ptr %55, i32 0, i32 6
  %57 = load ptr, ptr %56, align 8, !tbaa !52
  %58 = load ptr, ptr %5, align 8, !tbaa !11
  %59 = getelementptr inbounds nuw %struct.z_stream_s, ptr %58, i32 0, i32 1
  %60 = load i32, ptr %59, align 8, !tbaa !26
  %61 = zext i32 %60 to i64
  %62 = getelementptr inbounds nuw i8, ptr %57, i64 %61
  %63 = load ptr, ptr %3, align 8, !tbaa !8
  %64 = getelementptr inbounds nuw %struct.gz_state, ptr %63, i32 0, i32 4
  %65 = load i32, ptr %64, align 8, !tbaa !29
  %66 = load ptr, ptr %5, align 8, !tbaa !11
  %67 = getelementptr inbounds nuw %struct.z_stream_s, ptr %66, i32 0, i32 1
  %68 = load i32, ptr %67, align 8, !tbaa !26
  %69 = sub i32 %65, %68
  %70 = call i32 @gz_load(ptr noundef %54, ptr noundef %62, i32 noundef %69, ptr noundef %4)
  %71 = icmp eq i32 %70, -1
  br i1 %71, label %72, label %73

72:                                               ; preds = %53
  store i32 -1, ptr %2, align 4
  store i32 1, ptr %6, align 4
  br label %85

73:                                               ; preds = %53
  %74 = load i32, ptr %4, align 4, !tbaa !9
  %75 = load ptr, ptr %5, align 8, !tbaa !11
  %76 = getelementptr inbounds nuw %struct.z_stream_s, ptr %75, i32 0, i32 1
  %77 = load i32, ptr %76, align 8, !tbaa !26
  %78 = add i32 %77, %74
  store i32 %78, ptr %76, align 8, !tbaa !26
  %79 = load ptr, ptr %3, align 8, !tbaa !8
  %80 = getelementptr inbounds nuw %struct.gz_state, ptr %79, i32 0, i32 6
  %81 = load ptr, ptr %80, align 8, !tbaa !52
  %82 = load ptr, ptr %5, align 8, !tbaa !11
  %83 = getelementptr inbounds nuw %struct.z_stream_s, ptr %82, i32 0, i32 0
  store ptr %81, ptr %83, align 8, !tbaa !57
  br label %84

84:                                               ; preds = %73, %22
  store i32 0, ptr %2, align 4
  store i32 1, ptr %6, align 4
  br label %85

85:                                               ; preds = %84, %72, %21
  call void @llvm.lifetime.end.p0(i64 8, ptr %5) #8
  call void @llvm.lifetime.end.p0(i64 4, ptr %4) #8
  %86 = load i32, ptr %2, align 4
  ret i32 %86
}