; Function Attrs: nounwind uwtable
define internal fastcc range(i32 -1, 1) i32 @gz_avail(ptr noundef nonnull %0) unnamed_addr #0 {
  %2 = getelementptr inbounds nuw i8, ptr %0, i64 120
  %3 = getelementptr inbounds nuw i8, ptr %0, i64 108
  %4 = load i32, ptr %3, align 4, !tbaa !14
  switch i32 %4, label %51 [
    i32 0, label %5
    i32 -5, label %5
  ]

5:                                                ; preds = %1, %1
  %6 = getelementptr inbounds nuw i8, ptr %0, i64 80
  %7 = load i32, ptr %6, align 8, !tbaa !20
  %8 = icmp eq i32 %7, 0
  br i1 %8, label %9, label %51

9:                                                ; preds = %5
  %10 = getelementptr inbounds nuw i8, ptr %0, i64 128
  %11 = load i32, ptr %10, align 8, !tbaa !24
  %.not25 = icmp eq i32 %11, 0
  br i1 %.not25, label %.loopexit32, label %12

12:                                               ; preds = %9
  %13 = getelementptr inbounds nuw i8, ptr %0, i64 48
  %14 = load ptr, ptr %13, align 8, !tbaa !43
  %15 = load ptr, ptr %2, align 8, !tbaa !45
  br label %16

16:                                               ; preds = %16, %12
  %.020 = phi ptr [ %14, %12 ], [ %19, %16 ]
  %.019 = phi ptr [ %15, %12 ], [ %17, %16 ]
  %.0 = phi i32 [ %11, %12 ], [ %20, %16 ]
  %17 = getelementptr inbounds nuw i8, ptr %.019, i64 1
  %18 = load i8, ptr %.019, align 1, !tbaa !38
  %19 = getelementptr inbounds nuw i8, ptr %.020, i64 1
  store i8 %18, ptr %.020, align 1, !tbaa !38
  %20 = add i32 %.0, -1
  %.not26 = icmp eq i32 %20, 0
  br i1 %.not26, label %.loopexit32.loopexit, label %16, !llvm.loop !47

.loopexit32.loopexit:                             ; preds = %16
  %.pre = load i32, ptr %10, align 8, !tbaa !24
  br label %.loopexit32

.loopexit32:                                      ; preds = %.loopexit32.loopexit, %9
  %21 = phi i32 [ %.pre, %.loopexit32.loopexit ], [ 0, %9 ]
  %22 = getelementptr inbounds nuw i8, ptr %0, i64 48
  %23 = load ptr, ptr %22, align 8, !tbaa !43
  %24 = zext i32 %21 to i64
  %25 = getelementptr inbounds nuw i8, ptr %23, i64 %24
  %26 = getelementptr inbounds nuw i8, ptr %0, i64 40
  %27 = load i32, ptr %26, align 8, !tbaa !27
  %28 = sub i32 %27, %21
  %29 = getelementptr inbounds nuw i8, ptr %0, i64 28
  br label %30

30:                                               ; preds = %39, %.loopexit32
  %.028 = phi i32 [ 0, %.loopexit32 ], [ %40, %39 ]
  %31 = load i32, ptr %29, align 4, !tbaa !28
  %32 = zext i32 %.028 to i64
  %33 = getelementptr inbounds nuw i8, ptr %25, i64 %32
  %34 = sub i32 %28, %.028
  %35 = zext i32 %34 to i64
  %36 = tail call i64 @read(i32 noundef %31, ptr noundef %33, i64 noundef %35) #12
  %37 = trunc i64 %36 to i32
  %38 = icmp slt i32 %37, 1
  br i1 %38, label %42, label %39

39:                                               ; preds = %30
  %40 = add i32 %.028, %37
  %41 = icmp ult i32 %40, %28
  br i1 %41, label %30, label %.loopexit, !llvm.loop !29

42:                                               ; preds = %30
  %43 = icmp slt i32 %37, 0
  br i1 %43, label %gz_load.exit, label %44

44:                                               ; preds = %42
  store i32 1, ptr %6, align 8, !tbaa !20
  br label %.loopexit

gz_load.exit:                                     ; preds = %42
  %45 = tail call ptr @__errno_location() #13
  %46 = load i32, ptr %45, align 4, !tbaa !30
  %47 = tail call ptr @strerror(i32 noundef %46) #12
  tail call void @MOZ_Z_gz_error(ptr noundef nonnull %0, i32 noundef -1, ptr noundef %47) #12
  br label %51

.loopexit:                                        ; preds = %39, %44
  %.1.ph = phi i32 [ %.028, %44 ], [ %40, %39 ]
  %48 = load i32, ptr %10, align 8, !tbaa !24
  %49 = add i32 %48, %.1.ph
  store i32 %49, ptr %10, align 8, !tbaa !24
  %50 = load ptr, ptr %22, align 8, !tbaa !43
  store ptr %50, ptr %2, align 8, !tbaa !45
  br label %51

51:                                               ; preds = %gz_load.exit, %5, %.loopexit, %1
  %.021 = phi i32 [ -1, %1 ], [ -1, %gz_load.exit ], [ 0, %.loopexit ], [ 0, %5 ]
  ret i32 %.021
}